; Function Attrs: mustprogress nofree norecurse nosync nounwind willreturn memory(argmem: read) uwtable
define hidden noundef zeroext i1 @_ZNK19OpenColorIO_v2_4dev11RangeOpData17clampsToLutDomainEv(ptr nocapture noundef nonnull readonly align 8 dereferenceable(228) %this) local_unnamed_addr #8 align 2 {
entry:
  %m_minInValue.i = getelementptr inbounds i8, ptr %this, i64 168
  %0 = load double, ptr %m_minInValue.i, align 8
  %conv.i = fptrunc double %0 to float
  %1 = fcmp uno float %conv.i, 0.000000e+00
  %cmp = fcmp olt double %0, 0.000000e+00
  %or.cond = or i1 %cmp, %1
  br i1 %or.cond, label %return, label %if.end

if.end:                                           ; preds = %entry
  %m_maxInValue.i = getelementptr inbounds i8, ptr %this, i64 176
  %2 = load double, ptr %m_maxInValue.i, align 8
  %conv.i2 = fptrunc double %2 to float
  %3 = fcmp ord float %conv.i2, 0.000000e+00
  %cmp4 = fcmp ule double %2, 1.000000e+00
  %or.cond1.not = and i1 %cmp4, %3
  br label %return

return:                                           ; preds = %if.end, %entry
  %retval.0 = phi i1 [ false, %entry ], [ %or.cond1.not, %if.end ]
  ret i1 %retval.0
}